; Function Attrs: nounwind uwtable
define internal range(i32 -1, 57) i32 @prolog1(ptr noundef writeonly captures(none) %0, i32 noundef %1, ptr noundef %2, ptr noundef %3, ptr noundef %4) #1 {
  switch i32 %1, label %19 [
    i32 15, label %20
    i32 11, label %6
    i32 13, label %7
    i32 14, label %20
    i32 16, label %8
    i32 29, label %18
  ]

6:                                                ; preds = %5
  br label %20

7:                                                ; preds = %5
  br label %20

8:                                                ; preds = %5
  %9 = getelementptr inbounds nuw i8, ptr %4, i64 40
  %10 = load ptr, ptr %9, align 8, !tbaa !10
  %11 = getelementptr inbounds nuw i8, ptr %4, i64 120
  %12 = load i32, ptr %11, align 8, !tbaa !12
  %13 = shl nsw i32 %12, 1
  %14 = sext i32 %13 to i64
  %15 = getelementptr inbounds i8, ptr %2, i64 %14
  %16 = tail call i32 %10(ptr noundef %4, ptr noundef %15, ptr noundef %3, ptr noundef nonnull @KW_DOCTYPE) #5
  %.not = icmp eq i32 %16, 0
  br i1 %.not, label %19, label %17

17:                                               ; preds = %8
  store ptr @doctype0, ptr %0, align 8, !tbaa !4
  br label %20

18:                                               ; preds = %5
  store ptr @error, ptr %0, align 8, !tbaa !4
  br label %20

19:                                               ; preds = %8, %5
  store ptr @error, ptr %0, align 8, !tbaa !4
  br label %20

20:                                               ; preds = %5, %5, %19, %18, %17, %7, %6
  %.0 = phi i32 [ -1, %19 ], [ 2, %18 ], [ 3, %17 ], [ 56, %7 ], [ 55, %6 ], [ 0, %5 ], [ 0, %5 ]
  ret i32 %.0
}